; Function Attrs: nounwind uwtable
define void @Sim_UtilCountPairsAllPrint(ptr noundef captures(none) %0) local_unnamed_addr #7 {
  %2 = alloca %struct.timespec, align 8
  %3 = alloca %struct.timespec, align 8
  call void @llvm.lifetime.start.p0(i64 16, ptr nonnull %3) #18
  %4 = call i32 @clock_gettime(i32 noundef 1, ptr noundef nonnull %3) #18
  %5 = icmp slt i32 %4, 0
  br i1 %5, label %Abc_Clock.exit, label %6

6:                                                ; preds = %1
  %7 = load i64, ptr %3, align 8, !tbaa !90
  %.neg12 = mul i64 %7, -1000000
  %8 = getelementptr inbounds nuw i8, ptr %3, i64 8
  %9 = load i64, ptr %8, align 8, !tbaa !92
  %.neg = sdiv i64 %9, -1000
  %.neg13 = add i64 %.neg, %.neg12
  br label %Abc_Clock.exit

Abc_Clock.exit:                                   ; preds = %1, %6
  %.0.i.neg = phi i64 [ %.neg13, %6 ], [ 1, %1 ]
  call void @llvm.lifetime.end.p0(i64 16, ptr nonnull %3) #18
  %10 = getelementptr inbounds nuw i8, ptr %0, i64 20
  %11 = load i32, ptr %10, align 4, !tbaa !93
  %12 = icmp sgt i32 %11, 0
  br i1 %12, label %.lr.ph, label %._crit_edge

.lr.ph:                                           ; preds = %Abc_Clock.exit
  %13 = getelementptr inbounds nuw i8, ptr %0, i64 56
  %14 = getelementptr inbounds nuw i8, ptr %0, i64 48
  br label %15

15:                                               ; preds = %.lr.ph, %Sim_UtilCountPairsOnePrint.exit
  %indvars.iv = phi i64 [ 0, %.lr.ph ], [ %indvars.iv.next, %Sim_UtilCountPairsOnePrint.exit ]
  %16 = trunc nuw nsw i64 %indvars.iv to i32
  %17 = call i32 (ptr, ...) @printf(ptr noundef nonnull dereferenceable(1) @.str.1, i32 noundef %16)
  %18 = load ptr, ptr %13, align 8, !tbaa !95
  %19 = getelementptr i8, ptr %18, i64 8
  %.val = load ptr, ptr %19, align 8, !tbaa !9
  %20 = getelementptr inbounds nuw ptr, ptr %.val, i64 %indvars.iv
  %21 = load ptr, ptr %20, align 8, !tbaa !10
  %22 = load ptr, ptr %14, align 8, !tbaa !96
  %23 = getelementptr i8, ptr %22, i64 8
  %.val9 = load ptr, ptr %23, align 8, !tbaa !97
  %24 = getelementptr inbounds nuw ptr, ptr %.val9, i64 %indvars.iv
  %25 = load ptr, ptr %24, align 8, !tbaa !10
  %26 = getelementptr i8, ptr %25, i64 4
  %.val1823.i = load i32, ptr %26, align 4, !tbaa !16
  %27 = icmp sgt i32 %.val1823.i, 0
  br i1 %27, label %.lr.ph25.i, label %Sim_UtilCountPairsOnePrint.exit

.lr.ph25.i:                                       ; preds = %15
  %28 = getelementptr i8, ptr %25, i64 8
  br label %30

.critedge2.loopexit.loopexit.i:                   ; preds = %40
  %.pre.i = sext i32 %.val.i to i64
  br label %.critedge2.loopexit.i

.critedge2.loopexit.i:                            ; preds = %30, %.critedge2.loopexit.loopexit.i
  %.pre-phi.i = phi i64 [ %.pre.i, %.critedge2.loopexit.loopexit.i ], [ %33, %30 ]
  %.val18.i = phi i32 [ %.val.i, %.critedge2.loopexit.loopexit.i ], [ %.val1834.i, %30 ]
  %29 = icmp slt i64 %indvars.iv.next30.i, %.pre-phi.i
  %indvars.iv.next.i = add nuw nsw i64 %indvars.iv.i, 1
  br i1 %29, label %30, label %Sim_UtilCountPairsOnePrint.exit, !llvm.loop !88

30:                                               ; preds = %.critedge2.loopexit.i, %.lr.ph25.i
  %.val1834.i = phi i32 [ %.val1823.i, %.lr.ph25.i ], [ %.val18.i, %.critedge2.loopexit.i ]
  %indvars.iv29.i = phi i64 [ 0, %.lr.ph25.i ], [ %indvars.iv.next30.i, %.critedge2.loopexit.i ]
  %indvars.iv.i = phi i64 [ 1, %.lr.ph25.i ], [ %indvars.iv.next.i, %.critedge2.loopexit.i ]
  %.val20.i = load ptr, ptr %28, align 8, !tbaa !20
  %31 = getelementptr inbounds nuw i32, ptr %.val20.i, i64 %indvars.iv29.i
  %32 = load i32, ptr %31, align 4, !tbaa !14
  %indvars.iv.next30.i = add nuw nsw i64 %indvars.iv29.i, 1
  %33 = sext i32 %.val1834.i to i64
  %34 = icmp slt i64 %indvars.iv.next30.i, %33
  br i1 %34, label %.lr.ph.i, label %.critedge2.loopexit.i

.lr.ph.i:                                         ; preds = %30, %40
  %indvars.iv26.i = phi i64 [ %indvars.iv.next27.i, %40 ], [ %indvars.iv.i, %30 ]
  %.val19.i = load ptr, ptr %28, align 8, !tbaa !20
  %35 = getelementptr inbounds nuw i32, ptr %.val19.i, i64 %indvars.iv26.i
  %36 = load i32, ptr %35, align 4, !tbaa !14
  %37 = call i32 @Extra_BitMatrixLookup1(ptr noundef %21, i32 noundef %32, i32 noundef %36) #18
  %.not.i = icmp eq i32 %37, 0
  br i1 %.not.i, label %40, label %38

38:                                               ; preds = %.lr.ph.i
  %39 = call i32 (ptr, ...) @printf(ptr noundef nonnull dereferenceable(1) @.str, i32 noundef %32, i32 noundef %36)
  br label %40

40:                                               ; preds = %38, %.lr.ph.i
  %indvars.iv.next27.i = add nuw nsw i64 %indvars.iv26.i, 1
  %.val.i = load i32, ptr %26, align 4, !tbaa !16
  %41 = trunc nuw i64 %indvars.iv.next27.i to i32
  %42 = icmp sgt i32 %.val.i, %41
  br i1 %42, label %.lr.ph.i, label %.critedge2.loopexit.loopexit.i, !llvm.loop !89

Sim_UtilCountPairsOnePrint.exit:                  ; preds = %.critedge2.loopexit.i, %15
  %putchar = call i32 @putchar(i32 10)
  %indvars.iv.next = add nuw nsw i64 %indvars.iv, 1
  %43 = load i32, ptr %10, align 4, !tbaa !93
  %44 = sext i32 %43 to i64
  %45 = icmp slt i64 %indvars.iv.next, %44
  br i1 %45, label %15, label %._crit_edge, !llvm.loop !99

._crit_edge:                                      ; preds = %Sim_UtilCountPairsOnePrint.exit, %Abc_Clock.exit
  call void @llvm.lifetime.start.p0(i64 16, ptr nonnull %2) #18
  %46 = call i32 @clock_gettime(i32 noundef 1, ptr noundef nonnull %2) #18
  %47 = icmp slt i32 %46, 0
  br i1 %47, label %Abc_Clock.exit11, label %48

48:                                               ; preds = %._crit_edge
  %49 = load i64, ptr %2, align 8, !tbaa !90
  %50 = mul nsw i64 %49, 1000000
  %51 = getelementptr inbounds nuw i8, ptr %2, i64 8
  %52 = load i64, ptr %51, align 8, !tbaa !92
  %53 = sdiv i64 %52, 1000
  %54 = add nsw i64 %53, %50
  br label %Abc_Clock.exit11

Abc_Clock.exit11:                                 ; preds = %._crit_edge, %48
  %.0.i10 = phi i64 [ %54, %48 ], [ -1, %._crit_edge ]
  call void @llvm.lifetime.end.p0(i64 16, ptr nonnull %2) #18
  %55 = add i64 %.0.i10, %.0.i.neg
  %56 = getelementptr inbounds nuw i8, ptr %0, i64 200
  %57 = load i64, ptr %56, align 8, !tbaa !100
  %58 = add nsw i64 %55, %57
  store i64 %58, ptr %56, align 8, !tbaa !100
  ret void
}